; Function Attrs: nounwind uwtable
define dso_local noundef zeroext i1 @describeRoleGrants(ptr noundef %0, i1 noundef zeroext %1) local_unnamed_addr #0 {
  %3 = alloca %struct.PQExpBufferData, align 8
  %4 = alloca i32, align 4
  %5 = alloca %struct.PQExpBufferData, align 8
  %6 = alloca %struct.printQueryOpt, align 8
  call void @llvm.lifetime.start.p0(i64 24, ptr nonnull %5) #8
  call void @llvm.lifetime.start.p0(i64 168, ptr nonnull %6) #8
  call void @llvm.memcpy.p0.p0.i64(ptr noundef nonnull align 8 dereferenceable(168) %6, ptr noundef nonnull align 8 dereferenceable(168) getelementptr inbounds nuw (i8, ptr @pset, i64 48), i64 168, i1 false)
  call void @initPQExpBuffer(ptr noundef nonnull %5) #8
  call void (ptr, ptr, ...) @printfPQExpBuffer(ptr noundef nonnull %5, ptr noundef nonnull @.str.234, ptr noundef nonnull @.str.211, ptr noundef nonnull @.str.235) #8
  %7 = load i32, ptr getelementptr inbounds nuw (i8, ptr @pset, i64 332), align 4
  %8 = icmp sgt i32 %7, 159999
  %.str.236..str.237 = select i1 %8, ptr @.str.236, ptr @.str.237
  call void @appendPQExpBufferStr(ptr noundef nonnull %5, ptr noundef nonnull %.str.236..str.237) #8
  call void (ptr, ptr, ...) @appendPQExpBuffer(ptr noundef nonnull %5, ptr noundef nonnull @.str.238, ptr noundef nonnull @.str.31, ptr noundef nonnull @.str.239) #8
  call void @appendPQExpBufferStr(ptr noundef nonnull %5, ptr noundef nonnull @.str.240) #8
  %9 = icmp ne ptr %0, null
  %or.cond = or i1 %1, %9
  br i1 %or.cond, label %11, label %10

10:                                               ; preds = %2
  call void @appendPQExpBufferStr(ptr noundef nonnull %5, ptr noundef nonnull @.str.241) #8
  br label %11

11:                                               ; preds = %10, %2
  call void @llvm.lifetime.start.p0(i64 24, ptr nonnull %3) #8
  call void @llvm.lifetime.start.p0(i64 4, ptr nonnull %4) #8
  call void @initPQExpBuffer(ptr noundef nonnull %3) #8
  %12 = load ptr, ptr @pset, align 8
  %13 = call zeroext i1 @processSQLNamePattern(ptr noundef %12, ptr noundef nonnull %5, ptr noundef %0, i1 noundef zeroext false, i1 noundef zeroext false, ptr noundef null, ptr noundef nonnull @.str.242, ptr noundef null, ptr noundef null, ptr noundef nonnull %3, ptr noundef nonnull %4) #8
  %14 = load i32, ptr %4, align 4
  %.not19.i = icmp slt i32 %14, 1
  br i1 %.not19.i, label %16, label %15

15:                                               ; preds = %11
  call void (i32, i32, ptr, ...) @pg_log_generic(i32 noundef 4, i32 noundef 0, ptr noundef nonnull @.str.912, ptr noundef %0) #8
  call void @termPQExpBuffer(ptr noundef nonnull %3) #8
  call void @llvm.lifetime.end.p0(i64 4, ptr nonnull %4) #8
  call void @llvm.lifetime.end.p0(i64 24, ptr nonnull %3) #8
  call void @termPQExpBuffer(ptr noundef nonnull %5) #8
  br label %24

16:                                               ; preds = %11
  call void @termPQExpBuffer(ptr noundef nonnull %3) #8
  call void @llvm.lifetime.end.p0(i64 4, ptr nonnull %4) #8
  call void @llvm.lifetime.end.p0(i64 24, ptr nonnull %3) #8
  call void @appendPQExpBufferStr(ptr noundef nonnull %5, ptr noundef nonnull @.str.243) #8
  %17 = load ptr, ptr %5, align 8
  %18 = call ptr @PSQLexec(ptr noundef %17) #8
  call void @termPQExpBuffer(ptr noundef nonnull %5) #8
  %.not = icmp eq ptr %18, null
  br i1 %.not, label %24, label %19

19:                                               ; preds = %16
  %20 = getelementptr inbounds nuw i8, ptr %6, i64 128
  store ptr @.str.244, ptr %20, align 8
  %21 = getelementptr inbounds nuw i8, ptr %6, i64 144
  store i8 1, ptr %21, align 8
  %22 = load ptr, ptr getelementptr inbounds nuw (i8, ptr @pset, i64 16), align 8
  %23 = load ptr, ptr getelementptr inbounds nuw (i8, ptr @pset, i64 376), align 8
  call void @printQuery(ptr noundef nonnull %18, ptr noundef nonnull %6, ptr noundef %22, i1 noundef zeroext false, ptr noundef %23) #8
  call void @PQclear(ptr noundef nonnull %18) #8
  br label %24

24:                                               ; preds = %16, %19, %15
  %.0 = phi i1 [ true, %19 ], [ false, %15 ], [ false, %16 ]
  call void @llvm.lifetime.end.p0(i64 168, ptr nonnull %6) #8
  call void @llvm.lifetime.end.p0(i64 24, ptr nonnull %5) #8
  ret i1 %.0
}